target datalayout = "e-m:e-p270:32:32-p271:32:32-p272:64:64-i64:64-i128:128-f80:128-n8:16:32:64-S128"
target triple = "x86_64-pc-linux-gnu"

; Function Attrs: nounwind uwtable
define internal i32 @cs_rprune(i32 noundef %0, i32 noundef %1, double noundef %2, ptr noundef %3) #0 {
  %5 = alloca i32, align 4
  %6 = alloca i32, align 4
  %7 = alloca double, align 8
  %8 = alloca ptr, align 8
  %9 = alloca ptr, align 8
  store i32 %0, ptr %5, align 4, !tbaa !8
  store i32 %1, ptr %6, align 4, !tbaa !8
  store double %2, ptr %7, align 8, !tbaa !42
  store ptr %3, ptr %8, align 8, !tbaa !44
  call void @llvm.lifetime.start.p0(i64 8, ptr %9) #3
  %10 = load ptr, ptr %8, align 8, !tbaa !44
  store ptr %10, ptr %9, align 8, !tbaa !20
  %11 = load i32, ptr %5, align 4, !tbaa !8
  %12 = load ptr, ptr %9, align 8, !tbaa !20
  %13 = getelementptr inbounds i32, ptr %12, i64 1
  %14 = load i32, ptr %13, align 4, !tbaa !8
  %15 = icmp sge i32 %11, %14
  br i1 %15, label %16, label %22

16:                                               ; preds = %4
  %17 = load i32, ptr %5, align 4, !tbaa !8
  %18 = load ptr, ptr %9, align 8, !tbaa !20
  %19 = getelementptr inbounds i32, ptr %18, i64 2
  %20 = load i32, ptr %19, align 4, !tbaa !8
  %21 = icmp slt i32 %17, %20
  br label %22

22:                                               ; preds = %16, %4
  %23 = phi i1 [ false, %4 ], [ %21, %16 ]
  %24 = zext i1 %23 to i32
  call void @llvm.lifetime.end.p0(i64 8, ptr %9) #3
  ret i32 %24
}