; Function Attrs: mustprogress nofree norecurse nosync nounwind willreturn memory(argmem: read) uwtable
define internal range(i32 0, 2) i32 @cs_rprune(i32 noundef %0, i32 %1, double %2, ptr noundef readonly captures(none) %3) #2 {
  %5 = getelementptr inbounds nuw i8, ptr %3, i64 4
  %6 = load i32, ptr %5, align 4, !tbaa !18
  %.not = icmp slt i32 %0, %6
  br i1 %.not, label %12, label %7

7:                                                ; preds = %4
  %8 = getelementptr inbounds nuw i8, ptr %3, i64 8
  %9 = load i32, ptr %8, align 4, !tbaa !18
  %10 = icmp slt i32 %0, %9
  %11 = zext i1 %10 to i32
  br label %12

12:                                               ; preds = %7, %4
  %13 = phi i32 [ 0, %4 ], [ %11, %7 ]
  ret i32 %13
}